target datalayout = "e-m:e-p270:32:32-p271:32:32-p272:64:64-i64:64-i128:128-f80:128-n8:16:32:64-S128"
target triple = "x86_64-pc-linux-gnu"

%struct.FT_BBox_ = type { i64, i64, i64, i64 }
%struct.CFF_FontRecDictRec_ = type { i32, i32, i32, i32, i32, i32, i8, i64, i64, i64, i32, i32, %struct.FT_Matrix_, i8, i64, %struct.FT_Vector_, i64, %struct.FT_BBox_, i64, i64, i64, i64, i64, i64, i64, i32, i32, i32, i64, i64, i64, i64, i64, i64, i64, i64, i32, i16, i16, i64, i32 }
%struct.FT_Matrix_ = type { i64, i64, i64, i64 }
%struct.FT_Vector_ = type { i64, i64 }
%struct.CFF_ParserRec_ = type { ptr, ptr, ptr, ptr, ptr, ptr, i32, i32, ptr, i16, i16 }

; Function Attrs: nounwind uwtable
define internal i64 @cff_parse_fixed(ptr noundef %0, ptr noundef %1) #0 {
  %3 = alloca ptr, align 8
  %4 = alloca ptr, align 8
  store ptr %0, ptr %3, align 8
  store ptr %1, ptr %4, align 8
  %5 = load ptr, ptr %3, align 8
  %6 = load ptr, ptr %4, align 8
  %7 = call i64 @do_fixed(ptr noundef %5, ptr noundef %6, i64 noundef 0)
  ret i64 %7
}

; Function Attrs: nounwind uwtable
define internal i32 @cff_parse_font_bbox(ptr noundef %0) #0 {
  %2 = alloca ptr, align 8
  %3 = alloca ptr, align 8
  %4 = alloca ptr, align 8
  %5 = alloca ptr, align 8
  %6 = alloca i32, align 4
  store ptr %0, ptr %2, align 8
  %7 = load ptr, ptr %2, align 8
  %8 = getelementptr inbounds %struct.CFF_ParserRec_, ptr %7, i32 0, i32 8
  %9 = load ptr, ptr %8, align 8
  store ptr %9, ptr %3, align 8
  %10 = load ptr, ptr %3, align 8
  %11 = getelementptr inbounds %struct.CFF_FontRecDictRec_, ptr %10, i32 0, i32 17
  store ptr %11, ptr %4, align 8
  %12 = load ptr, ptr %2, align 8
  %13 = getelementptr inbounds %struct.CFF_ParserRec_, ptr %12, i32 0, i32 4
  %14 = load ptr, ptr %13, align 8
  store ptr %14, ptr %5, align 8
  store i32 161, ptr %6, align 4
  %15 = load ptr, ptr %2, align 8
  %16 = getelementptr inbounds %struct.CFF_ParserRec_, ptr %15, i32 0, i32 5
  %17 = load ptr, ptr %16, align 8
  %18 = load ptr, ptr %2, align 8
  %19 = getelementptr inbounds %struct.CFF_ParserRec_, ptr %18, i32 0, i32 4
  %20 = load ptr, ptr %19, align 8
  %21 = getelementptr inbounds ptr, ptr %20, i64 4
  %22 = icmp uge ptr %17, %21
  br i1 %22, label %23, label %53

23:                                               ; preds = %1
  %24 = load ptr, ptr %2, align 8
  %25 = load ptr, ptr %5, align 8
  %26 = getelementptr inbounds ptr, ptr %25, i32 1
  store ptr %26, ptr %5, align 8
  %27 = call i64 @cff_parse_fixed(ptr noundef %24, ptr noundef %25)
  %28 = call i64 @FT_RoundFix(i64 noundef %27)
  %29 = load ptr, ptr %4, align 8
  %30 = getelementptr inbounds %struct.FT_BBox_, ptr %29, i32 0, i32 0
  store i64 %28, ptr %30, align 8
  %31 = load ptr, ptr %2, align 8
  %32 = load ptr, ptr %5, align 8
  %33 = getelementptr inbounds ptr, ptr %32, i32 1
  store ptr %33, ptr %5, align 8
  %34 = call i64 @cff_parse_fixed(ptr noundef %31, ptr noundef %32)
  %35 = call i64 @FT_RoundFix(i64 noundef %34)
  %36 = load ptr, ptr %4, align 8
  %37 = getelementptr inbounds %struct.FT_BBox_, ptr %36, i32 0, i32 1
  store i64 %35, ptr %37, align 8
  %38 = load ptr, ptr %2, align 8
  %39 = load ptr, ptr %5, align 8
  %40 = getelementptr inbounds ptr, ptr %39, i32 1
  store ptr %40, ptr %5, align 8
  %41 = call i64 @cff_parse_fixed(ptr noundef %38, ptr noundef %39)
  %42 = call i64 @FT_RoundFix(i64 noundef %41)
  %43 = load ptr, ptr %4, align 8
  %44 = getelementptr inbounds %struct.FT_BBox_, ptr %43, i32 0, i32 2
  store i64 %42, ptr %44, align 8
  %45 = load ptr, ptr %2, align 8
  %46 = load ptr, ptr %5, align 8
  %47 = call i64 @cff_parse_fixed(ptr noundef %45, ptr noundef %46)
  %48 = call i64 @FT_RoundFix(i64 noundef %47)
  %49 = load ptr, ptr %4, align 8
  %50 = getelementptr inbounds %struct.FT_BBox_, ptr %49, i32 0, i32 3
  store i64 %48, ptr %50, align 8
  store i32 0, ptr %6, align 4
  br label %51

51:                                               ; preds = %23
  br label %52

52:                                               ; preds = %51
  br label %53

53:                                               ; preds = %52, %1
  %54 = load i32, ptr %6, align 4
  ret i32 %54
}