; Function Attrs: nounwind uwtable
define internal range(i32 0, 162) i32 @cff_parse_font_bbox(ptr nocapture noundef readonly %0) #4 {
  %2 = getelementptr inbounds i8, ptr %0, i64 32
  %3 = load ptr, ptr %2, align 8
  %4 = getelementptr inbounds i8, ptr %0, i64 40
  %5 = load ptr, ptr %4, align 8
  %6 = getelementptr inbounds i8, ptr %3, i64 32
  %.not = icmp ult ptr %5, %6
  br i1 %.not, label %25, label %7

7:                                                ; preds = %1
  %8 = getelementptr inbounds i8, ptr %0, i64 56
  %9 = load ptr, ptr %8, align 8
  %10 = getelementptr inbounds i8, ptr %9, i64 136
  %11 = getelementptr inbounds i8, ptr %3, i64 8
  %.val19 = load ptr, ptr %3, align 8
  %12 = tail call fastcc i64 @do_fixed(ptr noundef nonnull readonly %0, ptr %.val19, i64 noundef 0)
  %13 = tail call i64 @FT_RoundFix(i64 noundef %12) #20
  store i64 %13, ptr %10, align 8
  %14 = getelementptr inbounds i8, ptr %3, i64 16
  %.val18 = load ptr, ptr %11, align 8
  %15 = tail call fastcc i64 @do_fixed(ptr noundef nonnull readonly %0, ptr %.val18, i64 noundef 0)
  %16 = tail call i64 @FT_RoundFix(i64 noundef %15) #20
  %17 = getelementptr inbounds i8, ptr %9, i64 144
  store i64 %16, ptr %17, align 8
  %18 = getelementptr inbounds i8, ptr %3, i64 24
  %.val17 = load ptr, ptr %14, align 8
  %19 = tail call fastcc i64 @do_fixed(ptr noundef nonnull readonly %0, ptr %.val17, i64 noundef 0)
  %20 = tail call i64 @FT_RoundFix(i64 noundef %19) #20
  %21 = getelementptr inbounds i8, ptr %9, i64 152
  store i64 %20, ptr %21, align 8
  %.val = load ptr, ptr %18, align 8
  %22 = tail call fastcc i64 @do_fixed(ptr noundef nonnull readonly %0, ptr %.val, i64 noundef 0)
  %23 = tail call i64 @FT_RoundFix(i64 noundef %22) #20
  %24 = getelementptr inbounds i8, ptr %9, i64 160
  store i64 %23, ptr %24, align 8
  br label %25

25:                                               ; preds = %7, %1
  %.0 = phi i32 [ 0, %7 ], [ 161, %1 ]
  ret i32 %.0
}